target datalayout = "e-m:e-p270:32:32-p271:32:32-p272:64:64-i64:64-i128:128-f80:128-n8:16:32:64-S128"
target triple = "x86_64-pc-linux-gnu"

@.str.36 = private unnamed_addr constant [31 x i8] c"(error object is not a string)\00", align 1

; Function Attrs: nounwind uwtable
define internal i32 @report(ptr noundef %0, i32 noundef %1) #0 {
  %3 = alloca ptr, align 8
  %4 = alloca i32, align 4
  %5 = alloca ptr, align 8
  store ptr %0, ptr %3, align 8, !tbaa !14
  store i32 %1, ptr %4, align 4, !tbaa !4
  %6 = load i32, ptr %4, align 4, !tbaa !4
  %7 = icmp ne i32 %6, 0
  br i1 %7, label %8, label %21

8:                                                ; preds = %2
  %9 = load ptr, ptr %3, align 8, !tbaa !14
  %10 = call i32 @lua_type(ptr noundef %9, i32 noundef -1)
  %11 = icmp eq i32 %10, 0
  br i1 %11, label %21, label %12

12:                                               ; preds = %8
  call void @llvm.lifetime.start.p0(i64 8, ptr %5) #5
  %13 = load ptr, ptr %3, align 8, !tbaa !14
  %14 = call ptr @lua_tolstring(ptr noundef %13, i32 noundef -1, ptr noundef null)
  store ptr %14, ptr %5, align 8, !tbaa !11
  %15 = load ptr, ptr %5, align 8, !tbaa !11
  %16 = icmp eq ptr %15, null
  br i1 %16, label %17, label %18

17:                                               ; preds = %12
  store ptr @.str.36, ptr %5, align 8, !tbaa !11
  br label %18

18:                                               ; preds = %17, %12
  %19 = load ptr, ptr %5, align 8, !tbaa !11
  call void @l_message(ptr noundef %19)
  %20 = load ptr, ptr %3, align 8, !tbaa !14
  call void @lua_settop(ptr noundef %20, i32 noundef -2)
  call void @llvm.lifetime.end.p0(i64 8, ptr %5) #5
  br label %21

21:                                               ; preds = %18, %8, %2
  %22 = load i32, ptr %4, align 4, !tbaa !4
  ret i32 %22
}

; Function Attrs: nounwind uwtable
define internal i32 @dostring(ptr noundef %0, ptr noundef %1, ptr noundef %2) #0 {
  %4 = alloca ptr, align 8
  %5 = alloca ptr, align 8
  %6 = alloca ptr, align 8
  %7 = alloca i32, align 4
  store ptr %0, ptr %4, align 8, !tbaa !14
  store ptr %1, ptr %5, align 8, !tbaa !11
  store ptr %2, ptr %6, align 8, !tbaa !11
  call void @llvm.lifetime.start.p0(i64 4, ptr %7) #5
  %8 = load ptr, ptr %4, align 8, !tbaa !14
  %9 = load ptr, ptr %5, align 8, !tbaa !11
  %10 = load ptr, ptr %5, align 8, !tbaa !11
  %11 = call i64 @strlen(ptr noundef %10) #6
  %12 = load ptr, ptr %6, align 8, !tbaa !11
  %13 = call i32 @luaL_loadbuffer(ptr noundef %8, ptr noundef %9, i64 noundef %11, ptr noundef %12)
  %14 = icmp ne i32 %13, 0
  br i1 %14, label %19, label %15

15:                                               ; preds = %3
  %16 = load ptr, ptr %4, align 8, !tbaa !14
  %17 = call i32 @docall(ptr noundef %16, i32 noundef 0, i32 noundef 1)
  %18 = icmp ne i32 %17, 0
  br label %19

19:                                               ; preds = %15, %3
  %20 = phi i1 [ true, %3 ], [ %18, %15 ]
  %21 = zext i1 %20 to i32
  store i32 %21, ptr %7, align 4, !tbaa !4
  %22 = load ptr, ptr %4, align 8, !tbaa !14
  %23 = load i32, ptr %7, align 4, !tbaa !4
  %24 = call i32 @report(ptr noundef %22, i32 noundef %23)
  call void @llvm.lifetime.end.p0(i64 4, ptr %7) #5
  ret i32 %24
}