; Function Attrs: nounwind uwtable
define internal fastcc range(i32 0, 2) i32 @dostring(ptr noundef %0, ptr noundef %1, ptr noundef %2) unnamed_addr #0 {
  %4 = tail call i64 @strlen(ptr noundef nonnull dereferenceable(1) %1) #11
  %5 = tail call i32 @luaL_loadbuffer(ptr noundef %0, ptr noundef nonnull %1, i64 noundef %4, ptr noundef %2) #9
  %.not = icmp eq i32 %5, 0
  br i1 %.not, label %6, label %.thread

6:                                                ; preds = %3
  %7 = tail call fastcc i32 @docall(ptr noundef %0, i32 noundef 0, i32 noundef 1)
  %.not7 = icmp eq i32 %7, 0
  br i1 %.not7, label %report.exit, label %.thread

.thread:                                          ; preds = %3, %6
  %8 = tail call i32 @lua_type(ptr noundef %0, i32 noundef -1) #9
  %9 = icmp eq i32 %8, 0
  br i1 %9, label %report.exit, label %10

10:                                               ; preds = %.thread
  %11 = tail call ptr @lua_tolstring(ptr noundef %0, i32 noundef -1, ptr noundef null) #9
  %12 = icmp eq ptr %11, null
  %spec.store.select.i = select i1 %12, ptr @.str.36, ptr %11
  tail call fastcc void @l_message(ptr noundef nonnull %spec.store.select.i)
  tail call void @lua_settop(ptr noundef %0, i32 noundef -2) #9
  br label %report.exit

report.exit:                                      ; preds = %6, %.thread, %10
  %13 = phi i32 [ 0, %6 ], [ 1, %.thread ], [ 1, %10 ]
  ret i32 %13
}